(dp1
S'project_paths'
p2
(lp3
VC:\u005cUsers\u005cNick\u005cDropbox\u005cNick Wong Thesis\u005cSoftware\u005ccode\u005cdicom\u005ctibia
p4
aVC:\u005cUsers\u005cNick\u005cDropbox\u005cNick Wong Thesis\u005cSoftware\u005ccode\u005cdicom
p5
asS'name'
p6
Vdicom
p7
s.